target datalayout = "e-m:e-p270:32:32-p271:32:32-p272:64:64-i64:64-i128:128-f80:128-n8:16:32:64-S128"
target triple = "x86_64-pc-linux-gnu"

%struct.ssl_st = type { i32, i16, i16, ptr, ptr, ptr, ptr, ptr, i32, i32, ptr, ptr, i32, i32, ptr, ptr, ptr, ptr, ptr, ptr, ptr, ptr, i32, i32, [32 x i8], ptr, ptr, ptr, ptr, ptr, ptr, ptr, i64, %struct.crypto_ex_data_st, ptr, i32, i32, i32, i32, i16, ptr, i32, i64, ptr, ptr, ptr, ptr, ptr, ptr, i32, i32, ptr, ptr, i8, i8, i32 }
%struct.crypto_ex_data_st = type { ptr }

@.str = private unnamed_addr constant [117 x i8] c"generated/home/dtcxzyw/WorkSpace/Projects/compilers/llvm-opt-benchmark/bench/libquic/libquic/boringssl/ssl/ssl_rsa.c\00", align 1

; Function Attrs: nounwind uwtable
define hidden i32 @SSL_use_PrivateKey(ptr noundef %0, ptr noundef %1) #0 {
  %3 = alloca i32, align 4
  %4 = alloca ptr, align 8
  %5 = alloca ptr, align 8
  %6 = alloca i32, align 4
  %7 = alloca i32, align 4
  store ptr %0, ptr %4, align 8, !tbaa !6
  store ptr %1, ptr %5, align 8, !tbaa !40
  call void @llvm.lifetime.start.p0(i64 4, ptr %6) #4
  %8 = load ptr, ptr %5, align 8, !tbaa !40
  %9 = icmp eq ptr %8, null
  br i1 %9, label %10, label %11

10:                                               ; preds = %2
  call void @ERR_put_error(i32 noundef 16, i32 noundef 0, i32 noundef 67, ptr noundef @.str, i32 noundef 166)
  store i32 0, ptr %3, align 4
  store i32 1, ptr %7, align 4
  br label %18

11:                                               ; preds = %2
  %12 = load ptr, ptr %4, align 8, !tbaa !6
  %13 = getelementptr inbounds nuw %struct.ssl_st, ptr %12, i32 0, i32 21
  %14 = load ptr, ptr %13, align 8, !tbaa !13
  %15 = load ptr, ptr %5, align 8, !tbaa !40
  %16 = call i32 @ssl_set_pkey(ptr noundef %14, ptr noundef %15)
  store i32 %16, ptr %6, align 4, !tbaa !55
  %17 = load i32, ptr %6, align 4, !tbaa !55
  store i32 %17, ptr %3, align 4
  store i32 1, ptr %7, align 4
  br label %18

18:                                               ; preds = %11, %10
  call void @llvm.lifetime.end.p0(i64 4, ptr %6) #4
  %19 = load i32, ptr %3, align 4
  ret i32 %19
}

; Function Attrs: nounwind uwtable
define hidden i32 @SSL_use_PrivateKey_ASN1(i32 noundef %0, ptr noundef %1, ptr noundef %2, i64 noundef %3) #0 {
  %5 = alloca i32, align 4
  %6 = alloca i32, align 4
  %7 = alloca ptr, align 8
  %8 = alloca ptr, align 8
  %9 = alloca i64, align 8
  %10 = alloca ptr, align 8
  %11 = alloca ptr, align 8
  %12 = alloca i32, align 4
  %13 = alloca i32, align 4
  store i32 %0, ptr %6, align 4, !tbaa !55
  store ptr %1, ptr %7, align 8, !tbaa !6
  store ptr %2, ptr %8, align 8, !tbaa !53
  store i64 %3, ptr %9, align 8, !tbaa !54
  %14 = load i64, ptr %9, align 8, !tbaa !54
  %15 = icmp ugt i64 %14, 9223372036854775807
  br i1 %15, label %16, label %17

16:                                               ; preds = %4
  call void @ERR_put_error(i32 noundef 16, i32 noundef 0, i32 noundef 69, ptr noundef @.str, i32 noundef 177)
  store i32 0, ptr %5, align 4
  br label %39

17:                                               ; preds = %4
  call void @llvm.lifetime.start.p0(i64 8, ptr %10) #4
  %18 = load ptr, ptr %8, align 8, !tbaa !53
  store ptr %18, ptr %10, align 8, !tbaa !53
  call void @llvm.lifetime.start.p0(i64 8, ptr %11) #4
  %19 = load i32, ptr %6, align 4, !tbaa !55
  %20 = load i64, ptr %9, align 8, !tbaa !54
  %21 = call ptr @d2i_PrivateKey(i32 noundef %19, ptr noundef null, ptr noundef %10, i64 noundef %20)
  store ptr %21, ptr %11, align 8, !tbaa !40
  %22 = load ptr, ptr %11, align 8, !tbaa !40
  %23 = icmp eq ptr %22, null
  br i1 %23, label %30, label %24

24:                                               ; preds = %17
  %25 = load ptr, ptr %10, align 8, !tbaa !53
  %26 = load ptr, ptr %8, align 8, !tbaa !53
  %27 = load i64, ptr %9, align 8, !tbaa !54
  %28 = getelementptr inbounds nuw i8, ptr %26, i64 %27
  %29 = icmp ne ptr %25, %28
  br i1 %29, label %30, label %32

30:                                               ; preds = %24, %17
  call void @ERR_put_error(i32 noundef 16, i32 noundef 0, i32 noundef 12, ptr noundef @.str, i32 noundef 184)
  %31 = load ptr, ptr %11, align 8, !tbaa !40
  call void @EVP_PKEY_free(ptr noundef %31)
  store i32 0, ptr %5, align 4
  store i32 1, ptr %12, align 4
  br label %38

32:                                               ; preds = %24
  call void @llvm.lifetime.start.p0(i64 4, ptr %13) #4
  %33 = load ptr, ptr %7, align 8, !tbaa !6
  %34 = load ptr, ptr %11, align 8, !tbaa !40
  %35 = call i32 @SSL_use_PrivateKey(ptr noundef %33, ptr noundef %34)
  store i32 %35, ptr %13, align 4, !tbaa !55
  %36 = load ptr, ptr %11, align 8, !tbaa !40
  call void @EVP_PKEY_free(ptr noundef %36)
  %37 = load i32, ptr %13, align 4, !tbaa !55
  store i32 %37, ptr %5, align 4
  store i32 1, ptr %12, align 4
  call void @llvm.lifetime.end.p0(i64 4, ptr %13) #4
  br label %38

38:                                               ; preds = %32, %30
  call void @llvm.lifetime.end.p0(i64 8, ptr %11) #4
  call void @llvm.lifetime.end.p0(i64 8, ptr %10) #4
  br label %39

39:                                               ; preds = %38, %16
  %40 = load i32, ptr %5, align 4
  ret i32 %40
}