; Function Attrs: nounwind uwtable
define hidden range(i32 0, 2) i32 @SSL_use_PrivateKey_ASN1(i32 noundef %0, ptr noundef readonly captures(none) %1, ptr noundef %2, i64 noundef %3) local_unnamed_addr #0 {
  %5 = alloca ptr, align 8
  %6 = icmp slt i64 %3, 0
  br i1 %6, label %7, label %8

7:                                                ; preds = %4
  tail call void @ERR_put_error(i32 noundef 16, i32 noundef 0, i32 noundef 69, ptr noundef nonnull @.str, i32 noundef 177) #6
  br label %18

8:                                                ; preds = %4
  call void @llvm.lifetime.start.p0(i64 8, ptr nonnull %5) #6
  store ptr %2, ptr %5, align 8, !tbaa !48
  %9 = call ptr @d2i_PrivateKey(i32 noundef %0, ptr noundef null, ptr noundef nonnull %5, i64 noundef %3) #6
  %10 = icmp ne ptr %9, null
  %11 = load ptr, ptr %5, align 8
  %12 = getelementptr inbounds nuw i8, ptr %2, i64 %3
  %.not = icmp eq ptr %11, %12
  %or.cond = select i1 %10, i1 %.not, i1 false
  br i1 %or.cond, label %SSL_use_PrivateKey.exit, label %13

13:                                               ; preds = %8
  call void @ERR_put_error(i32 noundef 16, i32 noundef 0, i32 noundef 12, ptr noundef nonnull @.str, i32 noundef 184) #6
  br label %17

SSL_use_PrivateKey.exit:                          ; preds = %8
  %14 = getelementptr inbounds nuw i8, ptr %1, i64 136
  %15 = load ptr, ptr %14, align 8, !tbaa !6
  %16 = call fastcc i32 @ssl_set_pkey(ptr noundef %15, ptr noundef nonnull %9)
  br label %17

17:                                               ; preds = %SSL_use_PrivateKey.exit, %13
  %.1 = phi i32 [ 0, %13 ], [ %16, %SSL_use_PrivateKey.exit ]
  call void @EVP_PKEY_free(ptr noundef %9) #6
  call void @llvm.lifetime.end.p0(i64 8, ptr nonnull %5) #6
  br label %18

18:                                               ; preds = %17, %7
  %.0 = phi i32 [ 0, %7 ], [ %.1, %17 ]
  ret i32 %.0
}